; Function Attrs: nounwind uwtable
define hidden void @je_batcher_init(ptr noundef %0, i64 noundef %1) local_unnamed_addr #0 {
  store atomic i64 0, ptr %0 monotonic, align 8
  %3 = getelementptr inbounds nuw i8, ptr %0, i64 8
  store i64 %1, ptr %3, align 8, !tbaa !4
  %4 = getelementptr inbounds nuw i8, ptr %0, i64 16
  store i64 0, ptr %4, align 8, !tbaa !11
  %5 = getelementptr inbounds nuw i8, ptr %0, i64 24
  %6 = tail call zeroext i1 @je_malloc_mutex_init(ptr noundef nonnull %5, ptr noundef nonnull @.str, i32 noundef 4096, i32 noundef 0) #4
  ret void
}